target datalayout = "e-m:e-p270:32:32-p271:32:32-p272:64:64-i64:64-i128:128-f80:128-n8:16:32:64-S128"
target triple = "x86_64-pc-linux-gnu"

%struct.Aig_Man_t_ = type { ptr, ptr, ptr, ptr, ptr, ptr, ptr, %struct.Aig_Obj_t_, i32, i32, i32, i32, i32, i32, [7 x i32], i32, ptr, i32, ptr, i32, ptr, i32, i32, i32, ptr, i32, i32, i32, i32, i32, ptr, ptr, i32, ptr, ptr, i32, ptr, ptr, i32, i32, i32, ptr, ptr, ptr, ptr, ptr, ptr, ptr, ptr, ptr, ptr, ptr, ptr, ptr, ptr, i32, ptr, ptr, ptr, ptr, i32, i64, i64, i64, ptr, ptr }
%struct.Aig_Obj_t_ = type { %union.anon, ptr, ptr, i64, i32, i32, %union.anon.0 }
%union.anon = type { ptr }
%union.anon.0 = type { ptr }
%struct.Vec_Ptr_t_ = type { i32, i32, ptr }

@.str = private unnamed_addr constant [46 x i8] c"Aig_ManExtractMiter(): The check has failed.\0A\00", align 1

; Function Attrs: inlinehint nounwind uwtable
define internal ptr @Aig_NotCond(ptr noundef %0, i32 noundef %1) #4 {
  %3 = alloca ptr, align 8
  %4 = alloca i32, align 4
  store ptr %0, ptr %3, align 8, !tbaa !39
  store i32 %1, ptr %4, align 4, !tbaa !3
  %5 = load ptr, ptr %3, align 8, !tbaa !39
  %6 = ptrtoint ptr %5 to i64
  %7 = load i32, ptr %4, align 4, !tbaa !3
  %8 = sext i32 %7 to i64
  %9 = xor i64 %6, %8
  %10 = inttoptr i64 %9 to ptr
  ret ptr %10
}

; Function Attrs: inlinehint nounwind uwtable
define internal i32 @Aig_IsComplement(ptr noundef %0) #4 {
  %2 = alloca ptr, align 8
  store ptr %0, ptr %2, align 8, !tbaa !39
  %3 = load ptr, ptr %2, align 8, !tbaa !39
  %4 = ptrtoint ptr %3 to i64
  %5 = and i64 %4, 1
  %6 = trunc i64 %5 to i32
  ret i32 %6
}

; Function Attrs: inlinehint nounwind uwtable
define internal ptr @Aig_Regular(ptr noundef %0) #4 {
  %2 = alloca ptr, align 8
  store ptr %0, ptr %2, align 8, !tbaa !39
  %3 = load ptr, ptr %2, align 8, !tbaa !39
  %4 = ptrtoint ptr %3 to i64
  %5 = and i64 %4, -2
  %6 = inttoptr i64 %5 to ptr
  ret ptr %6
}

; Function Attrs: inlinehint nounwind uwtable
define internal ptr @Vec_PtrEntry(ptr noundef %0, i32 noundef %1) #4 {
  %3 = alloca ptr, align 8
  %4 = alloca i32, align 4
  store ptr %0, ptr %3, align 8, !tbaa !34
  store i32 %1, ptr %4, align 4, !tbaa !3
  %5 = load ptr, ptr %3, align 8, !tbaa !34
  %6 = getelementptr inbounds nuw %struct.Vec_Ptr_t_, ptr %5, i32 0, i32 2
  %7 = load ptr, ptr %6, align 8, !tbaa !38
  %8 = load i32, ptr %4, align 4, !tbaa !3
  %9 = sext i32 %8 to i64
  %10 = getelementptr inbounds ptr, ptr %7, i64 %9
  %11 = load ptr, ptr %10, align 8, !tbaa !49
  ret ptr %11
}

; Function Attrs: inlinehint nounwind uwtable
define internal i32 @Vec_PtrSize(ptr noundef %0) #4 {
  %2 = alloca ptr, align 8
  store ptr %0, ptr %2, align 8, !tbaa !34
  %3 = load ptr, ptr %2, align 8, !tbaa !34
  %4 = getelementptr inbounds nuw %struct.Vec_Ptr_t_, ptr %3, i32 0, i32 1
  %5 = load i32, ptr %4, align 4, !tbaa !35
  ret i32 %5
}

; Function Attrs: inlinehint nounwind uwtable
define internal ptr @Aig_ManConst1(ptr noundef %0) #4 {
  %2 = alloca ptr, align 8
  store ptr %0, ptr %2, align 8, !tbaa !7
  %3 = load ptr, ptr %2, align 8, !tbaa !7
  %4 = getelementptr inbounds nuw %struct.Aig_Man_t_, ptr %3, i32 0, i32 6
  %5 = load ptr, ptr %4, align 8, !tbaa !31
  ret ptr %5
}

; Function Attrs: inlinehint nounwind uwtable
define internal ptr @Abc_UtilStrsav(ptr noundef %0) #4 {
  %2 = alloca ptr, align 8
  store ptr %0, ptr %2, align 8, !tbaa !48
  %3 = load ptr, ptr %2, align 8, !tbaa !48
  %4 = icmp ne ptr %3, null
  br i1 %4, label %5, label %13

5:                                                ; preds = %1
  %6 = load ptr, ptr %2, align 8, !tbaa !48
  %7 = call i64 @strlen(ptr noundef %6) #12
  %8 = add i64 %7, 1
  %9 = mul i64 1, %8
  %10 = call noalias ptr @malloc(i64 noundef %9) #11
  %11 = load ptr, ptr %2, align 8, !tbaa !48
  %12 = call ptr @strcpy(ptr noundef %10, ptr noundef %11) #10
  br label %14

13:                                               ; preds = %1
  br label %14

14:                                               ; preds = %13, %5
  %15 = phi ptr [ %12, %5 ], [ null, %13 ]
  ret ptr %15
}

; Function Attrs: inlinehint nounwind uwtable
define internal i32 @Aig_ManObjNumMax(ptr noundef %0) #4 {
  %2 = alloca ptr, align 8
  store ptr %0, ptr %2, align 8, !tbaa !7
  %3 = load ptr, ptr %2, align 8, !tbaa !7
  %4 = getelementptr inbounds nuw %struct.Aig_Man_t_, ptr %3, i32 0, i32 4
  %5 = load ptr, ptr %4, align 8, !tbaa !26
  %6 = call i32 @Vec_PtrSize(ptr noundef %5)
  ret i32 %6
}

; Function Attrs: nounwind uwtable
define ptr @Aig_ManExtractMiter(ptr noundef %0, ptr noundef %1, ptr noundef %2) #0 {
  %4 = alloca ptr, align 8
  %5 = alloca ptr, align 8
  %6 = alloca ptr, align 8
  %7 = alloca ptr, align 8
  %8 = alloca ptr, align 8
  %9 = alloca i32, align 4
  store ptr %0, ptr %4, align 8, !tbaa !7
  store ptr %1, ptr %5, align 8, !tbaa !39
  store ptr %2, ptr %6, align 8, !tbaa !39
  call void @llvm.lifetime.start.p0(i64 8, ptr %7) #10
  call void @llvm.lifetime.start.p0(i64 8, ptr %8) #10
  call void @llvm.lifetime.start.p0(i64 4, ptr %9) #10
  %10 = load ptr, ptr %4, align 8, !tbaa !7
  %11 = call i32 @Aig_ManObjNumMax(ptr noundef %10)
  %12 = call ptr @Aig_ManStart(i32 noundef %11)
  store ptr %12, ptr %7, align 8, !tbaa !7
  %13 = load ptr, ptr %4, align 8, !tbaa !7
  %14 = getelementptr inbounds nuw %struct.Aig_Man_t_, ptr %13, i32 0, i32 0
  %15 = load ptr, ptr %14, align 8, !tbaa !44
  %16 = call ptr @Abc_UtilStrsav(ptr noundef %15)
  %17 = load ptr, ptr %7, align 8, !tbaa !7
  %18 = getelementptr inbounds nuw %struct.Aig_Man_t_, ptr %17, i32 0, i32 0
  store ptr %16, ptr %18, align 8, !tbaa !44
  %19 = load ptr, ptr %4, align 8, !tbaa !7
  %20 = getelementptr inbounds nuw %struct.Aig_Man_t_, ptr %19, i32 0, i32 1
  %21 = load ptr, ptr %20, align 8, !tbaa !45
  %22 = call ptr @Abc_UtilStrsav(ptr noundef %21)
  %23 = load ptr, ptr %7, align 8, !tbaa !7
  %24 = getelementptr inbounds nuw %struct.Aig_Man_t_, ptr %23, i32 0, i32 1
  store ptr %22, ptr %24, align 8, !tbaa !45
  %25 = load ptr, ptr %4, align 8, !tbaa !7
  call void @Aig_ManCleanData(ptr noundef %25)
  %26 = load ptr, ptr %7, align 8, !tbaa !7
  %27 = call ptr @Aig_ManConst1(ptr noundef %26)
  %28 = load ptr, ptr %4, align 8, !tbaa !7
  %29 = call ptr @Aig_ManConst1(ptr noundef %28)
  %30 = getelementptr inbounds nuw %struct.Aig_Obj_t_, ptr %29, i32 0, i32 6
  store ptr %27, ptr %30, align 8, !tbaa !46
  store i32 0, ptr %9, align 4, !tbaa !3
  br label %31

31:                                               ; preds = %51, %3
  %32 = load i32, ptr %9, align 4, !tbaa !3
  %33 = load ptr, ptr %4, align 8, !tbaa !7
  %34 = getelementptr inbounds nuw %struct.Aig_Man_t_, ptr %33, i32 0, i32 2
  %35 = load ptr, ptr %34, align 8, !tbaa !24
  %36 = call i32 @Vec_PtrSize(ptr noundef %35)
  %37 = icmp slt i32 %32, %36
  br i1 %37, label %38, label %44

38:                                               ; preds = %31
  %39 = load ptr, ptr %4, align 8, !tbaa !7
  %40 = getelementptr inbounds nuw %struct.Aig_Man_t_, ptr %39, i32 0, i32 2
  %41 = load ptr, ptr %40, align 8, !tbaa !24
  %42 = load i32, ptr %9, align 4, !tbaa !3
  %43 = call ptr @Vec_PtrEntry(ptr noundef %41, i32 noundef %42)
  store ptr %43, ptr %8, align 8, !tbaa !39
  br label %44

44:                                               ; preds = %38, %31
  %45 = phi i1 [ false, %31 ], [ true, %38 ]
  br i1 %45, label %46, label %54

46:                                               ; preds = %44
  %47 = load ptr, ptr %7, align 8, !tbaa !7
  %48 = call ptr @Aig_ObjCreateCi(ptr noundef %47)
  %49 = load ptr, ptr %8, align 8, !tbaa !39
  %50 = getelementptr inbounds nuw %struct.Aig_Obj_t_, ptr %49, i32 0, i32 6
  store ptr %48, ptr %50, align 8, !tbaa !46
  br label %51

51:                                               ; preds = %46
  %52 = load i32, ptr %9, align 4, !tbaa !3
  %53 = add nsw i32 %52, 1
  store i32 %53, ptr %9, align 4, !tbaa !3
  br label %31, !llvm.loop !52

54:                                               ; preds = %44
  %55 = load ptr, ptr %7, align 8, !tbaa !7
  %56 = load ptr, ptr %4, align 8, !tbaa !7
  %57 = load ptr, ptr %5, align 8, !tbaa !39
  %58 = call ptr @Aig_ManDup_rec(ptr noundef %55, ptr noundef %56, ptr noundef %57)
  %59 = load ptr, ptr %7, align 8, !tbaa !7
  %60 = load ptr, ptr %4, align 8, !tbaa !7
  %61 = load ptr, ptr %6, align 8, !tbaa !39
  %62 = call ptr @Aig_ManDup_rec(ptr noundef %59, ptr noundef %60, ptr noundef %61)
  %63 = load ptr, ptr %7, align 8, !tbaa !7
  %64 = load ptr, ptr %5, align 8, !tbaa !39
  %65 = getelementptr inbounds nuw %struct.Aig_Obj_t_, ptr %64, i32 0, i32 6
  %66 = load ptr, ptr %65, align 8, !tbaa !46
  %67 = load ptr, ptr %6, align 8, !tbaa !39
  %68 = getelementptr inbounds nuw %struct.Aig_Obj_t_, ptr %67, i32 0, i32 6
  %69 = load ptr, ptr %68, align 8, !tbaa !46
  %70 = call ptr @Aig_Exor(ptr noundef %63, ptr noundef %66, ptr noundef %69)
  store ptr %70, ptr %8, align 8, !tbaa !39
  %71 = load ptr, ptr %8, align 8, !tbaa !39
  %72 = load ptr, ptr %8, align 8, !tbaa !39
  %73 = call ptr @Aig_Regular(ptr noundef %72)
  %74 = getelementptr inbounds nuw %struct.Aig_Obj_t_, ptr %73, i32 0, i32 3
  %75 = load i64, ptr %74, align 8
  %76 = lshr i64 %75, 3
  %77 = and i64 %76, 1
  %78 = trunc i64 %77 to i32
  %79 = load ptr, ptr %8, align 8, !tbaa !39
  %80 = call i32 @Aig_IsComplement(ptr noundef %79)
  %81 = xor i32 %78, %80
  %82 = call ptr @Aig_NotCond(ptr noundef %71, i32 noundef %81)
  store ptr %82, ptr %8, align 8, !tbaa !39
  %83 = load ptr, ptr %7, align 8, !tbaa !7
  %84 = load ptr, ptr %8, align 8, !tbaa !39
  %85 = call ptr @Aig_ObjCreateCo(ptr noundef %83, ptr noundef %84)
  %86 = load ptr, ptr %7, align 8, !tbaa !7
  %87 = call i32 @Aig_ManCheck(ptr noundef %86)
  %88 = icmp ne i32 %87, 0
  br i1 %88, label %91, label %89

89:                                               ; preds = %54
  %90 = call i32 (ptr, ...) @printf(ptr noundef @.str)
  br label %91

91:                                               ; preds = %89, %54
  %92 = load ptr, ptr %7, align 8, !tbaa !7
  call void @llvm.lifetime.end.p0(i64 4, ptr %9) #10
  call void @llvm.lifetime.end.p0(i64 8, ptr %8) #10
  call void @llvm.lifetime.end.p0(i64 8, ptr %7) #10
  ret ptr %92
}