; Function Attrs: nounwind uwtable
define noundef ptr @Aig_ManExtractMiter(ptr noundef %0, ptr noundef captures(none) %1, ptr noundef captures(none) %2) local_unnamed_addr #0 {
  %4 = getelementptr i8, ptr %0, i64 32
  %.val30 = load ptr, ptr %4, align 8, !tbaa !27
  %5 = getelementptr i8, ptr %.val30, i64 4
  %.val30.val = load i32, ptr %5, align 4, !tbaa !21
  %6 = tail call ptr @Aig_ManStart(i32 noundef %.val30.val)
  %7 = load ptr, ptr %0, align 8, !tbaa !41
  %.not.i = icmp eq ptr %7, null
  br i1 %.not.i, label %Abc_UtilStrsav.exit, label %8

8:                                                ; preds = %3
  %9 = tail call i64 @strlen(ptr noundef nonnull readonly dereferenceable(1) %7) #21
  %10 = add i64 %9, 1
  %11 = tail call noalias ptr @malloc(i64 noundef %10) #18
  %12 = tail call ptr @strcpy(ptr noundef nonnull dereferenceable(1) %11, ptr noundef nonnull readonly dereferenceable(1) %7) #19
  br label %Abc_UtilStrsav.exit

Abc_UtilStrsav.exit:                              ; preds = %3, %8
  %13 = phi ptr [ %11, %8 ], [ null, %3 ]
  store ptr %13, ptr %6, align 8, !tbaa !41
  %14 = getelementptr inbounds nuw i8, ptr %0, i64 8
  %15 = load ptr, ptr %14, align 8, !tbaa !42
  %.not.i34 = icmp eq ptr %15, null
  br i1 %.not.i34, label %Abc_UtilStrsav.exit35, label %16

16:                                               ; preds = %Abc_UtilStrsav.exit
  %17 = tail call i64 @strlen(ptr noundef nonnull readonly dereferenceable(1) %15) #21
  %18 = add i64 %17, 1
  %19 = tail call noalias ptr @malloc(i64 noundef %18) #18
  %20 = tail call ptr @strcpy(ptr noundef nonnull dereferenceable(1) %19, ptr noundef nonnull readonly dereferenceable(1) %15) #19
  br label %Abc_UtilStrsav.exit35

Abc_UtilStrsav.exit35:                            ; preds = %Abc_UtilStrsav.exit, %16
  %21 = phi ptr [ %19, %16 ], [ null, %Abc_UtilStrsav.exit ]
  %22 = getelementptr inbounds nuw i8, ptr %6, i64 8
  store ptr %21, ptr %22, align 8, !tbaa !42
  tail call void @Aig_ManCleanData(ptr noundef nonnull %0) #19
  %23 = getelementptr i8, ptr %6, i64 48
  %.val32 = load ptr, ptr %23, align 8, !tbaa !34
  %24 = getelementptr i8, ptr %0, i64 48
  %.val31 = load ptr, ptr %24, align 8, !tbaa !34
  %25 = getelementptr inbounds nuw i8, ptr %.val31, i64 40
  store ptr %.val32, ptr %25, align 8, !tbaa !43
  %26 = getelementptr inbounds nuw i8, ptr %0, i64 16
  %27 = load ptr, ptr %26, align 8, !tbaa !25
  %28 = getelementptr i8, ptr %27, i64 4
  %.val36 = load i32, ptr %28, align 4, !tbaa !21
  %29 = icmp sgt i32 %.val36, 0
  br i1 %29, label %.lr.ph, label %.critedge

.lr.ph:                                           ; preds = %Abc_UtilStrsav.exit35, %.lr.ph
  %indvars.iv = phi i64 [ %indvars.iv.next, %.lr.ph ], [ 0, %Abc_UtilStrsav.exit35 ]
  %30 = phi ptr [ %36, %.lr.ph ], [ %27, %Abc_UtilStrsav.exit35 ]
  %31 = getelementptr i8, ptr %30, i64 8
  %.val33 = load ptr, ptr %31, align 8, !tbaa !24
  %32 = getelementptr inbounds nuw ptr, ptr %.val33, i64 %indvars.iv
  %33 = load ptr, ptr %32, align 8, !tbaa !33
  %34 = tail call ptr @Aig_ObjCreateCi(ptr noundef nonnull %6) #19
  %35 = getelementptr inbounds nuw i8, ptr %33, i64 40
  store ptr %34, ptr %35, align 8, !tbaa !43
  %indvars.iv.next = add nuw nsw i64 %indvars.iv, 1
  %36 = load ptr, ptr %26, align 8, !tbaa !25
  %37 = getelementptr i8, ptr %36, i64 4
  %.val = load i32, ptr %37, align 4, !tbaa !21
  %38 = sext i32 %.val to i64
  %39 = icmp slt i64 %indvars.iv.next, %38
  br i1 %39, label %.lr.ph, label %.critedge, !llvm.loop !47

.critedge:                                        ; preds = %.lr.ph, %Abc_UtilStrsav.exit35
  %40 = tail call ptr @Aig_ManDup_rec(ptr noundef nonnull %6, ptr noundef nonnull %0, ptr noundef %1)
  %41 = tail call ptr @Aig_ManDup_rec(ptr noundef nonnull %6, ptr noundef nonnull %0, ptr noundef %2)
  %42 = getelementptr inbounds nuw i8, ptr %1, i64 40
  %43 = load ptr, ptr %42, align 8, !tbaa !43
  %44 = getelementptr inbounds nuw i8, ptr %2, i64 40
  %45 = load ptr, ptr %44, align 8, !tbaa !43
  %46 = tail call ptr @Aig_Exor(ptr noundef nonnull %6, ptr noundef %43, ptr noundef %45) #19
  %47 = ptrtoint ptr %46 to i64
  %48 = and i64 %47, -2
  %49 = inttoptr i64 %48 to ptr
  %50 = getelementptr inbounds nuw i8, ptr %49, i64 24
  %51 = load i64, ptr %50, align 8
  %52 = trunc i64 %51 to i32
  %53 = lshr i32 %52, 3
  %54 = trunc i64 %47 to i32
  %55 = xor i32 %53, %54
  %56 = and i32 %55, 1
  %57 = zext nneg i32 %56 to i64
  %58 = xor i64 %57, %47
  %59 = inttoptr i64 %58 to ptr
  %60 = tail call ptr @Aig_ObjCreateCo(ptr noundef nonnull %6, ptr noundef %59) #19
  %61 = tail call i32 @Aig_ManCheck(ptr noundef nonnull %6) #19
  %.not = icmp eq i32 %61, 0
  br i1 %.not, label %62, label %63

62:                                               ; preds = %.critedge
  %puts = tail call i32 @puts(ptr nonnull dereferenceable(1) @str)
  br label %63

63:                                               ; preds = %62, %.critedge
  ret ptr %6
}